; Function Attrs: nounwind uwtable
define hidden void @Curl_cpool_do_by_id(ptr noundef %0, i64 noundef %1, ptr noundef readonly captures(none) %2, ptr noundef %3) local_unnamed_addr #0 {
  %5 = alloca %struct.Curl_hash_iterator, align 8
  %.not.i = icmp eq ptr %0, null
  br i1 %.not.i, label %cpool_get_instance.exit, label %6

6:                                                ; preds = %4
  %7 = getelementptr inbounds nuw i8, ptr %0, i64 224
  %8 = load ptr, ptr %7, align 8, !tbaa !82
  %.not13.i = icmp eq ptr %8, null
  br i1 %.not13.i, label %15, label %9

9:                                                ; preds = %6
  %10 = getelementptr inbounds nuw i8, ptr %8, i64 4
  %11 = load i32, ptr %10, align 4, !tbaa !89
  %12 = and i32 %11, 32
  %.not14.i = icmp eq i32 %12, 0
  br i1 %.not14.i, label %15, label %13

13:                                               ; preds = %9
  %14 = getelementptr inbounds nuw i8, ptr %8, i64 40
  br label %24

15:                                               ; preds = %9, %6
  %16 = getelementptr inbounds nuw i8, ptr %0, i64 216
  %17 = load ptr, ptr %16, align 8, !tbaa !123
  %.not15.i = icmp eq ptr %17, null
  br i1 %.not15.i, label %20, label %18

18:                                               ; preds = %15
  %19 = getelementptr inbounds nuw i8, ptr %17, i64 416
  br label %24

20:                                               ; preds = %15
  %21 = getelementptr inbounds nuw i8, ptr %0, i64 208
  %22 = load ptr, ptr %21, align 8, !tbaa !20
  %.not16.i = icmp eq ptr %22, null
  %23 = getelementptr inbounds nuw i8, ptr %22, i64 416
  br i1 %.not16.i, label %cpool_get_instance.exit, label %24

24:                                               ; preds = %13, %18, %20
  %.0.i.ph = phi ptr [ %23, %20 ], [ %19, %18 ], [ %14, %13 ]
  %25 = getelementptr inbounds nuw i8, ptr %.0.i.ph, i64 136
  %26 = load ptr, ptr %25, align 8, !tbaa !81
  %.not18 = icmp eq ptr %26, null
  br i1 %.not18, label %35, label %27

27:                                               ; preds = %24
  %28 = getelementptr inbounds nuw i8, ptr %26, i64 4
  %29 = load i32, ptr %28, align 4, !tbaa !89
  %30 = and i32 %29, 32
  %.not19 = icmp eq i32 %30, 0
  br i1 %.not19, label %35, label %31

31:                                               ; preds = %27
  %32 = getelementptr inbounds nuw i8, ptr %.0.i.ph, i64 120
  %33 = load ptr, ptr %32, align 8, !tbaa !3
  %34 = tail call i32 @Curl_share_lock(ptr noundef %33, i32 noundef 5, i32 noundef 2) #8
  br label %35

35:                                               ; preds = %24, %27, %31
  %36 = getelementptr inbounds nuw i8, ptr %.0.i.ph, i64 152
  %37 = load i8, ptr %36, align 8
  %38 = or i8 %37, 1
  store i8 %38, ptr %36, align 8
  call void @llvm.lifetime.start.p0(i64 24, ptr nonnull %5) #8
  call void @Curl_hash_start_iterate(ptr noundef nonnull %.0.i.ph, ptr noundef nonnull %5) #8
  %39 = call ptr @Curl_hash_next_element(ptr noundef nonnull %5) #8
  %.not24.not.i = icmp eq ptr %39, null
  br i1 %.not24.not.i, label %cpool_foreach.exit, label %.lr.ph.i

.critedge.loopexit.i:                             ; preds = %cpool_do_conn.exit
  %.not.not.i = icmp eq ptr %42, null
  br i1 %.not.not.i, label %cpool_foreach.exit, label %.lr.ph.i

.lr.ph.i:                                         ; preds = %35, %.critedge.loopexit.i
  %.01525.i = phi ptr [ %42, %.critedge.loopexit.i ], [ %39, %35 ]
  %40 = getelementptr inbounds nuw i8, ptr %.01525.i, i64 32
  %41 = load ptr, ptr %40, align 8, !tbaa !93
  %42 = call ptr @Curl_hash_next_element(ptr noundef nonnull %5) #8
  %43 = call ptr @Curl_llist_head(ptr noundef %41) #8
  br label %cpool_do_conn.exit

cpool_do_conn.exit:                               ; preds = %44, %.lr.ph.i
  %.016.i = phi ptr [ %43, %.lr.ph.i ], [ %46, %44 ]
  %.not20.i = icmp eq ptr %.016.i, null
  br i1 %.not20.i, label %.critedge.loopexit.i, label %44

44:                                               ; preds = %cpool_do_conn.exit
  %45 = call ptr @Curl_node_elem(ptr noundef nonnull %.016.i) #8
  %46 = call ptr @Curl_node_next(ptr noundef nonnull %.016.i) #8
  %47 = getelementptr inbounds nuw i8, ptr %45, i64 48
  %48 = load i64, ptr %47, align 8, !tbaa !137
  %49 = icmp eq i64 %48, %1
  br i1 %49, label %50, label %cpool_do_conn.exit, !llvm.loop !161

50:                                               ; preds = %44
  call void %2(ptr noundef nonnull %45, ptr noundef nonnull %0, ptr noundef %3) #8
  br label %cpool_foreach.exit, !llvm.loop !163

cpool_foreach.exit:                               ; preds = %.critedge.loopexit.i, %35, %50
  call void @llvm.lifetime.end.p0(i64 24, ptr nonnull %5) #8
  %51 = load i8, ptr %36, align 8
  %52 = and i8 %51, -2
  store i8 %52, ptr %36, align 8
  %53 = load ptr, ptr %25, align 8, !tbaa !81
  %.not20 = icmp eq ptr %53, null
  br i1 %.not20, label %cpool_get_instance.exit, label %54

54:                                               ; preds = %cpool_foreach.exit
  %55 = getelementptr inbounds nuw i8, ptr %53, i64 4
  %56 = load i32, ptr %55, align 4, !tbaa !89
  %57 = and i32 %56, 32
  %.not21 = icmp eq i32 %57, 0
  br i1 %.not21, label %cpool_get_instance.exit, label %58

58:                                               ; preds = %54
  %59 = getelementptr inbounds nuw i8, ptr %.0.i.ph, i64 120
  %60 = load ptr, ptr %59, align 8, !tbaa !3
  %61 = call i32 @Curl_share_unlock(ptr noundef %60, i32 noundef 5) #8
  br label %cpool_get_instance.exit

cpool_get_instance.exit:                          ; preds = %20, %4, %58, %54, %cpool_foreach.exit
  ret void
}